Certificate:
    Data:
        Version: 3 (0x2)
        Serial Number: 4096 (0x1000)
        Signature Algorithm: sha256WithRSAEncryption
        Issuer: C=DE, ST=Hamburg, L=Hamburg, O=UHH, OU=Netsec, CN=PWL/emailAddress=. 
        Validity
            Not Before: Jun  4 13:38:44 2024 GMT
            Not After : Jun  4 13:38:44 2025 GMT
        Subject: C=DE, ST=Hamburg, O=UHH, OU=Betriebsrat, CN=example.com
        Subject Public Key Info:
            Public Key Algorithm: rsaEncryption
                Public-Key: (2048 bit)
                Modulus:
                    00:d8:eb:c5:a2:0e:3c:85:fe:5e:2c:db:2e:55:85:
                    a8:77:74:cc:8c:af:4f:23:5c:a0:80:34:d0:b1:fb:
                    00:77:12:07:0c:fc:a0:2d:34:61:9c:6a:a0:24:36:
                    2a:e7:3a:e0:07:a4:10:98:f8:c4:b9:13:48:6b:6d:
                    af:ff:55:ef:43:21:71:c7:de:fc:67:f0:6e:a9:31:
                    b7:68:cd:b5:3f:79:df:c0:b2:11:4e:be:c9:f6:fd:
                    9d:9c:df:0b:7a:b1:b5:c3:96:98:3c:a5:24:c6:95:
                    40:83:41:29:30:34:9a:d7:22:da:bc:3e:1f:8b:55:
                    61:d9:21:18:e0:b4:ed:8a:3a:10:67:f6:22:d6:d6:
                    14:8f:b4:36:5a:6f:c3:8c:c3:05:db:ec:64:d0:12:
                    5c:4d:a7:26:86:89:db:b4:a3:10:f3:83:b2:4c:61:
                    92:9c:0c:35:ca:12:83:d3:1f:83:66:ee:02:64:13:
                    37:7c:72:60:72:d9:83:c6:4b:c5:d7:5f:5d:88:98:
                    71:fc:2b:b8:eb:9b:4c:80:b1:31:f1:89:6f:09:1d:
                    bc:90:d0:a3:be:85:90:df:88:ae:93:a1:aa:86:13:
                    05:7c:b6:78:89:0c:d7:71:ac:36:cd:3b:c6:0a:5c:
                    68:91:6d:f6:f2:b6:db:0a:05:a3:27:3c:53:59:40:
                    5f:d1
                Exponent: 65537 (0x10001)
        X509v3 extensions:
            X509v3 Basic Constraints: 
                CA:FALSE
            X509v3 Subject Key Identifier: 
                04:0B:C4:C5:0B:C6:7A:63:F3:6A:A2:5E:0F:91:99:AF:CC:42:E6:2A
            X509v3 Authority Key Identifier: 
                21:8C:00:1C:4A:DD:7B:EA:69:59:1C:16:51:9A:21:44:D6:64:72:44
    Signature Algorithm: sha256WithRSAEncryption
    Signature Value:
        99:54:cf:8f:31:37:ed:93:7c:03:47:98:f2:ee:13:c2:2b:f8:
        29:17:37:0a:2d:35:ee:93:2d:bf:89:e5:fe:05:f4:0f:f7:24:
        d4:24:20:01:7a:aa:25:94:0d:3d:1f:06:0e:af:1b:44:f6:e1:
        7a:17:b9:94:5f:12:da:a6:1d:eb:80:35:17:e6:d5:10:eb:b8:
        cf:d0:5e:47:44:1c:bf:c1:d2:26:a8:ae:12:a5:99:7b:fd:fb:
        3d:00:ba:6d:16:f8:82:f9:5e:be:ae:c6:fc:cb:b8:ae:98:5f:
        51:b2:9d:a9:57:72:8e:80:93:36:7d:4e:23:e2:42:e1:02:9e:
        5f:dd:53:2e:94:29:fe:54:e9:4b:38:74:6d:27:b6:2c:cd:72:
        63:8d:82:6b:e5:de:fb:2a:aa:75:f0:99:b8:ba:ad:a0:1c:b2:
        83:60:5b:4b:40:67:16:16:bd:16:a7:e2:e7:d0:13:04:f0:75:
        c8:a3:76:31:21:5b:86:16:7b:5e:96:f8:fa:a4:0a:10:ff:39:
        e3:fe:e4:2e:10:94:14:bd:91:38:62:ad:7e:94:24:e9:3f:07:
        46:20:be:3b:d4:81:fd:f0:91:20:64:ec:0f:16:ef:fd:38:65:
        d1:f6:a6:94:f4:0e:94:ef:32:0d:0c:0c:f4:99:89:7e:9f:20:
        f5:e5:56:f2
-----BEGIN CERTIFICATE-----
MIIDkzCCAnugAwIBAgICEAAwDQYJKoZIhvcNAQELBQAwcTELMAkGA1UEBhMCREUx
EDAOBgNVBAgMB0hhbWJ1cmcxEDAOBgNVBAcMB0hhbWJ1cmcxDDAKBgNVBAoMA1VI
SDEPMA0GA1UECwwGTmV0c2VjMQwwCgYDVQQDDANQV0wxETAPBgkqhkiG9w0BCQEW
Ai4gMB4XDTI0MDYwNDEzMzg0NFoXDTI1MDYwNDEzMzg0NFowWTELMAkGA1UEBhMC
REUxEDAOBgNVBAgMB0hhbWJ1cmcxDDAKBgNVBAoMA1VISDEUMBIGA1UECwwLQmV0
cmllYnNyYXQxFDASBgNVBAMMC2V4YW1wbGUuY29tMIIBIjANBgkqhkiG9w0BAQEF
AAOCAQ8AMIIBCgKCAQEA2OvFog48hf5eLNsuVYWod3TMjK9PI1yggDTQsfsAdxIH
DPygLTRhnGqgJDYq5zrgB6QQmPjEuRNIa22v/1XvQyFxx978Z/BuqTG3aM21P3nf
wLIRTr7J9v2dnN8LerG1w5aYPKUkxpVAg0EpMDSa1yLavD4fi1Vh2SEY4LTtijoQ
Z/Yi1tYUj7Q2Wm/DjMMF2+xk0BJcTacmhonbtKMQ84OyTGGSnAw1yhKD0x+DZu4C
ZBM3fHJgctmDxkvF119diJhx/Cu465tMgLEx8YlvCR28kNCjvoWQ34iuk6GqhhMF
fLZ4iQzXcaw2zTvGClxokW328rbbCgWjJzxTWUBf0QIDAQABo00wSzAJBgNVHRME
AjAAMB0GA1UdDgQWBBQEC8TFC8Z6Y/Nqol4PkZmvzELmKjAfBgNVHSMEGDAWgBQh
jAAcSt176mlZHBZRmiFE1mRyRDANBgkqhkiG9w0BAQsFAAOCAQEAmVTPjzE37ZN8
A0eY8u4Twiv4KRc3Ci017pMtv4nl/gX0D/ck1CQgAXqqJZQNPR8GDq8bRPbhehe5
lF8S2qYd64A1F+bVEOu4z9BeR0Qcv8HSJqiuEqWZe/37PQC6bRb4gvlevq7G/Mu4
rphfUbKdqVdyjoCTNn1OI+JC4QKeX91TLpQp/lTpSzh0bSe2LM1yY42Ca+Xe+yqq
dfCZuLqtoByyg2BbS0BnFha9Fqfi59ATBPB1yKN2MSFbhhZ7Xpb4+qQKEP854/7k
LhCUFL2ROGKtfpQk6T8HRiC+O9SB/fCRIGTsDxbv/Thl0famlPQOlO8yDQwM9JmJ
fp8g9eVW8g==
-----END CERTIFICATE-----
